target datalayout = "e-m:e-p270:32:32-p271:32:32-p272:64:64-i64:64-i128:128-f80:128-n8:16:32:64-S128"
target triple = "x86_64-pc-linux-gnu"

@globalUtilOptind = external global i32, align 4
@.str.33 = private unnamed_addr constant [4 x i8] c"yes\00", align 1
@.str.34 = private unnamed_addr constant [3 x i8] c"no\00", align 1
@.str.39 = private unnamed_addr constant [5 x i8] c"agvh\00", align 1
@.str.40 = private unnamed_addr constant [27 x i8] c"Library is not available.\0A\00", align 1
@.str.41 = private unnamed_addr constant [29 x i8] c"The file name is not given.\0A\00", align 1
@.str.42 = private unnamed_addr constant [2 x i8] c"w\00", align 1
@.str.43 = private unnamed_addr constant [55 x i8] c"Error! Cannot open file \22%s\22 for writing the library.\0A\00", align 1
@.str.44 = private unnamed_addr constant [55 x i8] c"The current genlib library is written into file \22%s\22.\0A\00", align 1
@.str.45 = private unnamed_addr constant [37 x i8] c"\0Ausage: write_genlib [-agvh] <file>\0A\00", align 1
@.str.46 = private unnamed_addr constant [58 x i8] c"\09          writes the current genlib library into a file\0A\00", align 1
@.str.47 = private unnamed_addr constant [58 x i8] c"\09-a      : toggles writing min-area gates [default = %s]\0A\00", align 1
@.str.48 = private unnamed_addr constant [66 x i8] c"\09-g      : toggles writing the library in Verilog [default = %s]\0A\00", align 1
@.str.49 = private unnamed_addr constant [62 x i8] c"\09-v      : toggles enabling of verbose output [default = %s]\0A\00", align 1
@.str.50 = private unnamed_addr constant [36 x i8] c"\09-h      : print the command usage\0A\00", align 1
@.str.51 = private unnamed_addr constant [52 x i8] c"\09<file>  : optional file name to write the library\0A\00", align 1

; Function Attrs: nounwind uwtable
define internal i32 @Mio_CommandWriteGenlib(ptr noundef %0, i32 noundef %1, ptr noundef %2) #0 {
  %4 = alloca i32, align 4
  %5 = alloca ptr, align 8
  %6 = alloca i32, align 4
  %7 = alloca ptr, align 8
  %8 = alloca ptr, align 8
  %9 = alloca ptr, align 8
  %10 = alloca ptr, align 8
  %11 = alloca ptr, align 8
  %12 = alloca i32, align 4
  %13 = alloca i32, align 4
  %14 = alloca i32, align 4
  %15 = alloca i32, align 4
  store ptr %0, ptr %5, align 8
  store i32 %1, ptr %6, align 4
  store ptr %2, ptr %7, align 8
  store i32 0, ptr %12, align 4
  store i32 0, ptr %13, align 4
  store i32 0, ptr %14, align 4
  %16 = load ptr, ptr %5, align 8
  %17 = call ptr @Abc_FrameReadOut(ptr noundef %16)
  store ptr %17, ptr %8, align 8
  %18 = load ptr, ptr %5, align 8
  %19 = call ptr @Abc_FrameReadErr(ptr noundef %18)
  store ptr %19, ptr %9, align 8
  call void (...) @Extra_UtilGetoptReset()
  br label %20

20:                                               ; preds = %38, %3
  %21 = load i32, ptr %6, align 4
  %22 = load ptr, ptr %7, align 8
  %23 = call i32 @Extra_UtilGetopt(i32 noundef %21, ptr noundef %22, ptr noundef @.str.39)
  store i32 %23, ptr %15, align 4
  %24 = icmp ne i32 %23, -1
  br i1 %24, label %25, label %39

25:                                               ; preds = %20
  %26 = load i32, ptr %15, align 4
  switch i32 %26, label %37 [
    i32 97, label %27
    i32 103, label %30
    i32 118, label %33
    i32 104, label %36
  ]

27:                                               ; preds = %25
  %28 = load i32, ptr %12, align 4
  %29 = xor i32 %28, 1
  store i32 %29, ptr %12, align 4
  br label %38

30:                                               ; preds = %25
  %31 = load i32, ptr %13, align 4
  %32 = xor i32 %31, 1
  store i32 %32, ptr %13, align 4
  br label %38

33:                                               ; preds = %25
  %34 = load i32, ptr %14, align 4
  %35 = xor i32 %34, 1
  store i32 %35, ptr %14, align 4
  br label %38

36:                                               ; preds = %25
  br label %80

37:                                               ; preds = %25
  br label %80

38:                                               ; preds = %33, %30, %27
  br label %20, !llvm.loop !6

39:                                               ; preds = %20
  %40 = call ptr (...) @Abc_FrameReadLibGen()
  %41 = icmp eq ptr %40, null
  br i1 %41, label %42, label %44

42:                                               ; preds = %39
  %43 = call i32 (ptr, ...) @printf(ptr noundef @.str.40)
  store i32 1, ptr %4, align 4
  br label %104

44:                                               ; preds = %39
  %45 = load i32, ptr %6, align 4
  %46 = load i32, ptr @globalUtilOptind, align 4
  %47 = add nsw i32 %46, 1
  %48 = icmp ne i32 %45, %47
  br i1 %48, label %49, label %51

49:                                               ; preds = %44
  %50 = call i32 (ptr, ...) @printf(ptr noundef @.str.41)
  store i32 1, ptr %4, align 4
  br label %104

51:                                               ; preds = %44
  %52 = load ptr, ptr %7, align 8
  %53 = load i32, ptr @globalUtilOptind, align 4
  %54 = sext i32 %53 to i64
  %55 = getelementptr inbounds ptr, ptr %52, i64 %54
  %56 = load ptr, ptr %55, align 8
  store ptr %56, ptr %11, align 8
  %57 = load ptr, ptr %11, align 8
  %58 = call noalias ptr @fopen(ptr noundef %57, ptr noundef @.str.42)
  store ptr %58, ptr %10, align 8
  %59 = load ptr, ptr %10, align 8
  %60 = icmp eq ptr %59, null
  br i1 %60, label %61, label %64

61:                                               ; preds = %51
  %62 = load ptr, ptr %11, align 8
  %63 = call i32 (ptr, ...) @printf(ptr noundef @.str.43, ptr noundef %62)
  store i32 1, ptr %4, align 4
  br label %104

64:                                               ; preds = %51
  %65 = load i32, ptr %13, align 4
  %66 = icmp ne i32 %65, 0
  br i1 %66, label %67, label %71

67:                                               ; preds = %64
  %68 = load ptr, ptr %10, align 8
  %69 = call ptr (...) @Abc_FrameReadLibGen()
  %70 = load i32, ptr %12, align 4
  call void @Mio_WriteLibraryVerilog(ptr noundef %68, ptr noundef %69, i32 noundef 0, i32 noundef 0, i32 noundef %70)
  br label %75

71:                                               ; preds = %64
  %72 = load ptr, ptr %10, align 8
  %73 = call ptr (...) @Abc_FrameReadLibGen()
  %74 = load i32, ptr %12, align 4
  call void @Mio_WriteLibrary(ptr noundef %72, ptr noundef %73, i32 noundef 0, i32 noundef 0, i32 noundef %74)
  br label %75

75:                                               ; preds = %71, %67
  %76 = load ptr, ptr %10, align 8
  %77 = call i32 @fclose(ptr noundef %76)
  %78 = load ptr, ptr %11, align 8
  %79 = call i32 (ptr, ...) @printf(ptr noundef @.str.44, ptr noundef %78)
  store i32 0, ptr %4, align 4
  br label %104

80:                                               ; preds = %37, %36
  %81 = load ptr, ptr %9, align 8
  %82 = call i32 (ptr, ptr, ...) @fprintf(ptr noundef %81, ptr noundef @.str.45) #6
  %83 = load ptr, ptr %9, align 8
  %84 = call i32 (ptr, ptr, ...) @fprintf(ptr noundef %83, ptr noundef @.str.46) #6
  %85 = load ptr, ptr %9, align 8
  %86 = load i32, ptr %12, align 4
  %87 = icmp ne i32 %86, 0
  %88 = select i1 %87, ptr @.str.33, ptr @.str.34
  %89 = call i32 (ptr, ptr, ...) @fprintf(ptr noundef %85, ptr noundef @.str.47, ptr noundef %88) #6
  %90 = load ptr, ptr %9, align 8
  %91 = load i32, ptr %13, align 4
  %92 = icmp ne i32 %91, 0
  %93 = select i1 %92, ptr @.str.33, ptr @.str.34
  %94 = call i32 (ptr, ptr, ...) @fprintf(ptr noundef %90, ptr noundef @.str.48, ptr noundef %93) #6
  %95 = load ptr, ptr %9, align 8
  %96 = load i32, ptr %14, align 4
  %97 = icmp ne i32 %96, 0
  %98 = select i1 %97, ptr @.str.33, ptr @.str.34
  %99 = call i32 (ptr, ptr, ...) @fprintf(ptr noundef %95, ptr noundef @.str.49, ptr noundef %98) #6
  %100 = load ptr, ptr %9, align 8
  %101 = call i32 (ptr, ptr, ...) @fprintf(ptr noundef %100, ptr noundef @.str.50) #6
  %102 = load ptr, ptr %9, align 8
  %103 = call i32 (ptr, ptr, ...) @fprintf(ptr noundef %102, ptr noundef @.str.51) #6
  store i32 1, ptr %4, align 4
  br label %104

104:                                              ; preds = %80, %75, %61, %49, %42
  %105 = load i32, ptr %4, align 4
  ret i32 %105
}