; Function Attrs: nounwind uwtable
define internal range(i32 0, 2) i32 @Mio_CommandWriteGenlib(ptr noundef %0, i32 noundef %1, ptr noundef %2) #0 {
  %4 = tail call ptr @Abc_FrameReadOut(ptr noundef %0) #8
  %5 = tail call ptr @Abc_FrameReadErr(ptr noundef %0) #8
  tail call void (...) @Extra_UtilGetoptReset() #8
  br label %.outer

.outer:                                           ; preds = %8, %3
  %.033.ph = phi i32 [ %9, %8 ], [ 0, %3 ]
  %.031.ph = phi i32 [ %.031.ph56, %8 ], [ 0, %3 ]
  %.030.ph = phi i32 [ %.030, %8 ], [ 0, %3 ]
  br label %.outer55

.outer55:                                         ; preds = %.outer, %10
  %.031.ph56 = phi i32 [ %.031.ph, %.outer ], [ %11, %10 ]
  %.030.ph57 = phi i32 [ %.030.ph, %.outer ], [ %.030, %10 ]
  br label %6

6:                                                ; preds = %.outer55, %12
  %.030 = phi i32 [ %13, %12 ], [ %.030.ph57, %.outer55 ]
  %7 = tail call i32 @Extra_UtilGetopt(i32 noundef %1, ptr noundef %2, ptr noundef nonnull @.str.39) #8
  switch i32 %7, label %37 [
    i32 -1, label %14
    i32 97, label %8
    i32 103, label %10
    i32 118, label %12
  ]

8:                                                ; preds = %6
  %9 = xor i32 %.033.ph, 1
  br label %.outer, !llvm.loop !6

10:                                               ; preds = %6
  %11 = xor i32 %.031.ph56, 1
  br label %.outer55, !llvm.loop !6

12:                                               ; preds = %6
  %13 = xor i32 %.030, 1
  br label %6, !llvm.loop !6

14:                                               ; preds = %6
  %15 = tail call ptr (...) @Abc_FrameReadLibGen() #8
  %16 = icmp eq ptr %15, null
  br i1 %16, label %17, label %18

17:                                               ; preds = %14
  %puts39 = tail call i32 @puts(ptr nonnull dereferenceable(1) @str.5)
  br label %48

18:                                               ; preds = %14
  %19 = load i32, ptr @globalUtilOptind, align 4
  %20 = add nsw i32 %19, 1
  %.not37 = icmp eq i32 %1, %20
  br i1 %.not37, label %22, label %21

21:                                               ; preds = %18
  %puts = tail call i32 @puts(ptr nonnull dereferenceable(1) @str.3)
  br label %48

22:                                               ; preds = %18
  %23 = sext i32 %19 to i64
  %24 = getelementptr inbounds ptr, ptr %2, i64 %23
  %25 = load ptr, ptr %24, align 8
  %26 = tail call noalias ptr @fopen(ptr noundef %25, ptr noundef nonnull @.str.42)
  %27 = icmp eq ptr %26, null
  br i1 %27, label %28, label %30

28:                                               ; preds = %22
  %29 = tail call i32 (ptr, ...) @printf(ptr noundef nonnull dereferenceable(1) @.str.43, ptr noundef %25)
  br label %48

30:                                               ; preds = %22
  %.not38 = icmp eq i32 %.031.ph56, 0
  %31 = tail call ptr (...) @Abc_FrameReadLibGen() #8
  br i1 %.not38, label %33, label %32

32:                                               ; preds = %30
  tail call void @Mio_WriteLibraryVerilog(ptr noundef nonnull %26, ptr noundef %31, i32 noundef 0, i32 noundef 0, i32 noundef %.033.ph) #8
  br label %34

33:                                               ; preds = %30
  tail call void @Mio_WriteLibrary(ptr noundef nonnull %26, ptr noundef %31, i32 noundef 0, i32 noundef 0, i32 noundef %.033.ph) #8
  br label %34

34:                                               ; preds = %33, %32
  %35 = tail call i32 @fclose(ptr noundef nonnull %26)
  %36 = tail call i32 (ptr, ...) @printf(ptr noundef nonnull dereferenceable(1) @.str.44, ptr noundef %25)
  br label %48

37:                                               ; preds = %6
  %38 = tail call i64 @fwrite(ptr nonnull @.str.45, i64 36, i64 1, ptr %5)
  %39 = tail call i64 @fwrite(ptr nonnull @.str.46, i64 57, i64 1, ptr %5)
  %.not40 = icmp eq i32 %.033.ph, 0
  %40 = select i1 %.not40, ptr @.str.34, ptr @.str.33
  %41 = tail call i32 (ptr, ptr, ...) @fprintf(ptr noundef %5, ptr noundef nonnull @.str.47, ptr noundef nonnull %40) #8
  %.not41 = icmp eq i32 %.031.ph56, 0
  %42 = select i1 %.not41, ptr @.str.34, ptr @.str.33
  %43 = tail call i32 (ptr, ptr, ...) @fprintf(ptr noundef %5, ptr noundef nonnull @.str.48, ptr noundef nonnull %42) #8
  %.not42 = icmp eq i32 %.030, 0
  %44 = select i1 %.not42, ptr @.str.34, ptr @.str.33
  %45 = tail call i32 (ptr, ptr, ...) @fprintf(ptr noundef %5, ptr noundef nonnull @.str.49, ptr noundef nonnull %44) #8
  %46 = tail call i64 @fwrite(ptr nonnull @.str.50, i64 35, i64 1, ptr %5)
  %47 = tail call i64 @fwrite(ptr nonnull @.str.51, i64 51, i64 1, ptr %5)
  br label %48

48:                                               ; preds = %37, %34, %28, %21, %17
  %.0 = phi i32 [ 1, %37 ], [ 1, %17 ], [ 1, %21 ], [ 1, %28 ], [ 0, %34 ]
  ret i32 %.0
}